; Function Attrs: mustprogress nounwind uwtable
define internal noundef zeroext i1 @_ZNK4node12_GLOBAL__N_114DataQueueEntry13is_idempotentEv(ptr nocapture noundef nonnull readonly align 8 dereferenceable(24) %this) unnamed_addr #3 align 2 {
entry:
  %data_queue_ = getelementptr inbounds i8, ptr %this, i64 8
  %0 = load ptr, ptr %data_queue_, align 8
  %vtable = load ptr, ptr %0, align 8
  %vfn = getelementptr inbounds i8, ptr %vtable, i64 104
  %1 = load ptr, ptr %vfn, align 8
  %call2 = tail call noundef zeroext i1 %1(ptr noundef nonnull align 8 dereferenceable(8) %0) #20
  ret i1 %call2
}